; ModuleID = '50/2518.cpp'
source_filename = "50/2518.cpp"
target datalayout = "e-m:e-p270:32:32-p271:32:32-p272:64:64-i64:64-f80:128-n8:16:32:64-S128"
target triple = "x86_64-pc-linux-gnu"

%"class.std::ios_base::Init" = type { i8 }
%"class.std::basic_istream" = type { i32 (...)**, i64, %"class.std::basic_ios" }
%"class.std::basic_ios" = type { %"class.std::ios_base", %"class.std::basic_ostream"*, i8, i8, %"class.std::basic_streambuf"*, %"class.std::ctype"*, %"class.std::num_put"*, %"class.std::num_get"* }
%"class.std::ios_base" = type { i32 (...)**, i64, i64, i32, i32, i32, %"struct.std::ios_base::_Callback_list"*, %"struct.std::ios_base::_Words", [8 x %"struct.std::ios_base::_Words"], i32, %"struct.std::ios_base::_Words"*, %"class.std::locale" }
%"struct.std::ios_base::_Callback_list" = type { %"struct.std::ios_base::_Callback_list"*, void (i32, %"class.std::ios_base"*, i32)*, i32, i32 }
%"struct.std::ios_base::_Words" = type { i8*, i64 }
%"class.std::locale" = type { %"class.std::locale::_Impl"* }
%"class.std::locale::_Impl" = type { i32, %"class.std::locale::facet"**, i64, %"class.std::locale::facet"**, i8** }
%"class.std::locale::facet" = type <{ i32 (...)**, i32, [4 x i8] }>
%"class.std::basic_ostream" = type { i32 (...)**, %"class.std::basic_ios" }
%"class.std::basic_streambuf" = type { i32 (...)**, i8*, i8*, i8*, i8*, i8*, i8*, %"class.std::locale" }
%"class.std::ctype" = type <{ %"class.std::locale::facet.base", [4 x i8], %struct.__locale_struct*, i8, [7 x i8], i32*, i32*, i16*, i8, [256 x i8], [256 x i8], i8, [6 x i8] }>
%"class.std::locale::facet.base" = type <{ i32 (...)**, i32 }>
%struct.__locale_struct = type { [13 x %struct.__locale_data*], i16*, i32*, i32*, [13 x i8*] }
%struct.__locale_data = type opaque
%"class.std::num_put" = type { %"class.std::locale::facet.base", [4 x i8] }
%"class.std::num_get" = type { %"class.std::locale::facet.base", [4 x i8] }

@_ZStL8__ioinit = internal global %"class.std::ios_base::Init" zeroinitializer, align 1
@__dso_handle = external hidden global i8
@_ZSt3cin = external dso_local global %"class.std::basic_istream", align 8
@_ZSt4cout = external dso_local global %"class.std::basic_ostream", align 8
@llvm.global_ctors = appending global [1 x { i32, void ()*, i8* }] [{ i32, void ()*, i8* } { i32 65535, void ()* @_GLOBAL__sub_I_2518.cpp, i8* null }]

; Function Attrs: noinline uwtable
define internal void @__cxx_global_var_init() #0 section ".text.startup" {
  call void @_ZNSt8ios_base4InitC1Ev(%"class.std::ios_base::Init"* @_ZStL8__ioinit)
  %1 = call i32 @__cxa_atexit(void (i8*)* bitcast (void (%"class.std::ios_base::Init"*)* @_ZNSt8ios_base4InitD1Ev to void (i8*)*), i8* getelementptr inbounds (%"class.std::ios_base::Init", %"class.std::ios_base::Init"* @_ZStL8__ioinit, i32 0, i32 0), i8* @__dso_handle) #3
  ret void
}

declare dso_local void @_ZNSt8ios_base4InitC1Ev(%"class.std::ios_base::Init"*) unnamed_addr #1

; Function Attrs: nounwind
declare dso_local void @_ZNSt8ios_base4InitD1Ev(%"class.std::ios_base::Init"*) unnamed_addr #2

; Function Attrs: nounwind
declare dso_local i32 @__cxa_atexit(void (i8*)*, i8*, i8*) #3

; Function Attrs: noinline norecurse uwtable
define dso_local i32 @main() #4 {
  %1 = alloca i32, align 4
  %2 = alloca i32, align 4
  %3 = alloca [12 x i32], align 16
  %4 = alloca i32, align 4
  %5 = alloca i32, align 4
  %6 = alloca i32, align 4
  %7 = alloca i32, align 4
  %8 = alloca i32, align 4
  %9 = alloca i32, align 4
  %10 = alloca i32, align 4
  %11 = alloca i32, align 4
  %12 = alloca i32, align 4
  %13 = alloca i32, align 4
  %14 = alloca i32, align 4
  %15 = alloca i32, align 4
  %16 = alloca i32, align 4
  store i32 0, i32* %1, align 4
  %17 = call dereferenceable(280) %"class.std::basic_istream"* @_ZNSirsERi(%"class.std::basic_istream"* @_ZSt3cin, i32* dereferenceable(4) %2)
  %18 = load i32, i32* %2, align 4
  %19 = srem i32 %18, 7
  store i32 %19, i32* %4, align 4
  %20 = load i32, i32* %4, align 4
  %21 = getelementptr inbounds [12 x i32], [12 x i32]* %3, i64 0, i64 0
  store i32 %20, i32* %21, align 16
  %22 = load i32, i32* %2, align 4
  %23 = add nsw i32 31, %22
  %24 = srem i32 %23, 7
  store i32 %24, i32* %5, align 4
  %25 = load i32, i32* %5, align 4
  %26 = getelementptr inbounds [12 x i32], [12 x i32]* %3, i64 0, i64 1
  store i32 %25, i32* %26, align 4
  %27 = load i32, i32* %2, align 4
  %28 = add nsw i32 59, %27
  %29 = srem i32 %28, 7
  store i32 %29, i32* %6, align 4
  %30 = load i32, i32* %6, align 4
  %31 = getelementptr inbounds [12 x i32], [12 x i32]* %3, i64 0, i64 2
  store i32 %30, i32* %31, align 8
  %32 = load i32, i32* %2, align 4
  %33 = add nsw i32 90, %32
  %34 = srem i32 %33, 7
  store i32 %34, i32* %7, align 4
  %35 = load i32, i32* %7, align 4
  %36 = getelementptr inbounds [12 x i32], [12 x i32]* %3, i64 0, i64 3
  store i32 %35, i32* %36, align 4
  %37 = load i32, i32* %2, align 4
  %38 = add nsw i32 120, %37
  %39 = srem i32 %38, 7
  store i32 %39, i32* %8, align 4
  %40 = load i32, i32* %8, align 4
  %41 = getelementptr inbounds [12 x i32], [12 x i32]* %3, i64 0, i64 4
  store i32 %40, i32* %41, align 16
  %42 = load i32, i32* %2, align 4
  %43 = add nsw i32 151, %42
  %44 = srem i32 %43, 7
  store i32 %44, i32* %9, align 4
  %45 = load i32, i32* %9, align 4
  %46 = getelementptr inbounds [12 x i32], [12 x i32]* %3, i64 0, i64 5
  store i32 %45, i32* %46, align 4
  %47 = load i32, i32* %2, align 4
  %48 = add nsw i32 181, %47
  %49 = srem i32 %48, 7
  store i32 %49, i32* %10, align 4
  %50 = load i32, i32* %10, align 4
  %51 = getelementptr inbounds [12 x i32], [12 x i32]* %3, i64 0, i64 6
  store i32 %50, i32* %51, align 8
  %52 = load i32, i32* %2, align 4
  %53 = add nsw i32 212, %52
  %54 = srem i32 %53, 7
  store i32 %54, i32* %11, align 4
  %55 = load i32, i32* %11, align 4
  %56 = getelementptr inbounds [12 x i32], [12 x i32]* %3, i64 0, i64 7
  store i32 %55, i32* %56, align 4
  %57 = load i32, i32* %2, align 4
  %58 = add nsw i32 243, %57
  %59 = srem i32 %58, 7
  store i32 %59, i32* %12, align 4
  %60 = load i32, i32* %12, align 4
  %61 = getelementptr inbounds [12 x i32], [12 x i32]* %3, i64 0, i64 8
  store i32 %60, i32* %61, align 16
  %62 = load i32, i32* %2, align 4
  %63 = add nsw i32 273, %62
  %64 = srem i32 %63, 7
  store i32 %64, i32* %13, align 4
  %65 = load i32, i32* %13, align 4
  %66 = getelementptr inbounds [12 x i32], [12 x i32]* %3, i64 0, i64 9
  store i32 %65, i32* %66, align 4
  %67 = load i32, i32* %2, align 4
  %68 = add nsw i32 304, %67
  %69 = srem i32 %68, 7
  store i32 %69, i32* %14, align 4
  %70 = load i32, i32* %14, align 4
  %71 = getelementptr inbounds [12 x i32], [12 x i32]* %3, i64 0, i64 10
  store i32 %70, i32* %71, align 8
  %72 = load i32, i32* %2, align 4
  %73 = add nsw i32 334, %72
  %74 = srem i32 %73, 7
  store i32 %74, i32* %15, align 4
  %75 = load i32, i32* %15, align 4
  %76 = getelementptr inbounds [12 x i32], [12 x i32]* %3, i64 0, i64 11
  store i32 %75, i32* %76, align 4
  store i32 0, i32* %16, align 4
  br label %77

77:                                               ; preds = %92, %0
  %78 = load i32, i32* %16, align 4
  %79 = icmp sle i32 %78, 11
  br i1 %79, label %80, label %95

80:                                               ; preds = %77
  %81 = load i32, i32* %16, align 4
  %82 = sext i32 %81 to i64
  %83 = getelementptr inbounds [12 x i32], [12 x i32]* %3, i64 0, i64 %82
  %84 = load i32, i32* %83, align 4
  %85 = icmp eq i32 %84, 0
  br i1 %85, label %86, label %91

86:                                               ; preds = %80
  %87 = load i32, i32* %16, align 4
  %88 = add nsw i32 %87, 1
  %89 = call dereferenceable(272) %"class.std::basic_ostream"* @_ZNSolsEi(%"class.std::basic_ostream"* @_ZSt4cout, i32 %88)
  %90 = call dereferenceable(272) %"class.std::basic_ostream"* @_ZNSolsEPFRSoS_E(%"class.std::basic_ostream"* %89, %"class.std::basic_ostream"* (%"class.std::basic_ostream"*)* @_ZSt4endlIcSt11char_traitsIcEERSt13basic_ostreamIT_T0_ES6_)
  br label %91

91:                                               ; preds = %86, %80
  br label %92

92:                                               ; preds = %91
  %93 = load i32, i32* %16, align 4
  %94 = add nsw i32 %93, 1
  store i32 %94, i32* %16, align 4
  br label %77

95:                                               ; preds = %77
  ret i32 0
}

declare dso_local dereferenceable(280) %"class.std::basic_istream"* @_ZNSirsERi(%"class.std::basic_istream"*, i32* dereferenceable(4)) #1

declare dso_local dereferenceable(272) %"class.std::basic_ostream"* @_ZNSolsEi(%"class.std::basic_ostream"*, i32) #1

declare dso_local dereferenceable(272) %"class.std::basic_ostream"* @_ZNSolsEPFRSoS_E(%"class.std::basic_ostream"*, %"class.std::basic_ostream"* (%"class.std::basic_ostream"*)*) #1

declare dso_local dereferenceable(272) %"class.std::basic_ostream"* @_ZSt4endlIcSt11char_traitsIcEERSt13basic_ostreamIT_T0_ES6_(%"class.std::basic_ostream"* dereferenceable(272)) #1

; Function Attrs: noinline uwtable
define internal void @_GLOBAL__sub_I_2518.cpp() #0 section ".text.startup" {
  call void @__cxx_global_var_init()
  ret void
}


!llvm.module.flags = !{!0}
!llvm.ident = !{!1}

!0 = !{i32 1, !"wchar_size", i32 4}
!1 = !{!"clang version 10.0.0-4ubuntu1 "}
